target datalayout = "e-m:e-p270:32:32-p271:32:32-p272:64:64-i64:64-i128:128-f80:128-n8:16:32:64-S128"
target triple = "x86_64-pc-linux-gnu"

%struct.sigaction = type { %union.anon, %struct.__sigset_t, i32, ptr }
%union.anon = type { ptr }
%struct.__sigset_t = type { [16 x i64] }

@.str.15 = private unnamed_addr constant [10 x i8] c"sigaction\00", align 1

; Function Attrs: nounwind uwtable
define i32 @daemonize_all_return() #0 {
  %1 = alloca i32, align 4
  %2 = call i32 @fork() #10
  store i32 %2, ptr %1, align 4
  %3 = load i32, ptr %1, align 4
  %4 = icmp eq i32 0, %3
  br i1 %4, label %5, label %7

5:                                                ; preds = %0
  %6 = call i32 @setsid() #10
  br label %7

7:                                                ; preds = %5, %0
  %8 = load i32, ptr %1, align 4
  ret i32 %8
}

; Function Attrs: nounwind uwtable
define i32 @daemonize_parent_wait(ptr noundef %0, ptr noundef %1) #0 {
  %3 = alloca i32, align 4
  %4 = alloca ptr, align 8
  %5 = alloca ptr, align 8
  %6 = alloca i32, align 4
  %7 = alloca %struct.sigaction, align 8
  %8 = alloca i32, align 4
  store ptr %0, ptr %4, align 8
  store ptr %1, ptr %5, align 8
  %9 = call i32 @daemonize_all_return()
  store i32 %9, ptr %6, align 4
  %10 = load i32, ptr %6, align 4
  %11 = icmp eq i32 %10, -1
  br i1 %11, label %12, label %13

12:                                               ; preds = %2
  store i32 -1, ptr %3, align 4
  br label %46

13:                                               ; preds = %2
  %14 = load i32, ptr %6, align 4
  %15 = icmp ne i32 %14, 0
  br i1 %15, label %16, label %44

16:                                               ; preds = %13
  call void @llvm.memset.p0.i64(ptr align 8 %7, i8 0, i64 152, i1 false)
  %17 = getelementptr inbounds %struct.sigaction, ptr %7, i32 0, i32 1
  %18 = call i32 @sigemptyset(ptr noundef %17) #10
  %19 = getelementptr inbounds %struct.sigaction, ptr %7, i32 0, i32 0
  store ptr @daemonize_child_initialized_handler, ptr %19, align 8
  %20 = call i32 @sigaction(i32 noundef 2, ptr noundef %7, ptr noundef null) #10
  %21 = icmp ne i32 0, %20
  br i1 %21, label %22, label %23

22:                                               ; preds = %16
  call void @perror(ptr noundef @.str.15)
  store i32 -1, ptr %3, align 4
  br label %46

23:                                               ; preds = %16
  %24 = load ptr, ptr %4, align 8
  %25 = icmp ne ptr null, %24
  br i1 %25, label %26, label %33

26:                                               ; preds = %23
  %27 = load ptr, ptr %4, align 8
  %28 = load ptr, ptr %5, align 8
  %29 = call i32 @drop_privileges(ptr noundef %27, ptr noundef %28)
  %30 = icmp ne i32 %29, 0
  br i1 %30, label %31, label %32

31:                                               ; preds = %26
  store i32 -1, ptr %3, align 4
  br label %46

32:                                               ; preds = %26
  br label %33

33:                                               ; preds = %32, %23
  %34 = call i32 @wait(ptr noundef %8)
  %35 = load i32, ptr %8, align 4
  %36 = and i32 %35, 127
  %37 = icmp eq i32 %36, 0
  br i1 %37, label %38, label %43

38:                                               ; preds = %33
  %39 = load i32, ptr %8, align 4
  %40 = and i32 %39, 65280
  %41 = ashr i32 %40, 8
  store i32 %41, ptr %8, align 4
  %42 = load i32, ptr %8, align 4
  call void @exit(i32 noundef %42) #11
  unreachable

43:                                               ; preds = %33
  br label %44

44:                                               ; preds = %43, %13
  br label %45

45:                                               ; preds = %44
  store i32 0, ptr %3, align 4
  br label %46

46:                                               ; preds = %45, %31, %22, %12
  %47 = load i32, ptr %3, align 4
  ret i32 %47
}