; Function Attrs: nounwind uwtable
define noundef i32 @daemonize_parent_wait(ptr noundef %0, ptr noundef %1) local_unnamed_addr #1 {
  %3 = alloca %struct.sigaction, align 8
  %4 = alloca i32, align 4
  %5 = tail call i32 @fork() #18
  switch i32 %5, label %7 [
    i32 0, label %daemonize_all_return.exit.thread
    i32 -1, label %23
  ]

daemonize_all_return.exit.thread:                 ; preds = %2
  %6 = tail call i32 @setsid() #18
  br label %23

7:                                                ; preds = %2
  call void @llvm.memset.p0.i64(ptr noundef nonnull align 8 dereferenceable(152) %3, i8 0, i64 152, i1 false)
  %8 = getelementptr inbounds i8, ptr %3, i64 8
  %9 = call i32 @sigemptyset(ptr noundef nonnull %8) #18
  store ptr @daemonize_child_initialized_handler, ptr %3, align 8
  %10 = call i32 @sigaction(i32 noundef 2, ptr noundef nonnull %3, ptr noundef null) #18
  %.not7 = icmp eq i32 %10, 0
  br i1 %.not7, label %12, label %11

11:                                               ; preds = %7
  call void @perror(ptr noundef nonnull @.str.15) #21
  br label %23

12:                                               ; preds = %7
  %.not8 = icmp eq ptr %0, null
  br i1 %.not8, label %15, label %13

13:                                               ; preds = %12
  %14 = call i32 @drop_privileges(ptr noundef nonnull %0, ptr noundef %1), !range !5
  %.not9 = icmp eq i32 %14, 0
  br i1 %.not9, label %15, label %23

15:                                               ; preds = %13, %12
  %16 = call i32 @wait(ptr noundef nonnull %4) #18
  %17 = load i32, ptr %4, align 4
  %18 = and i32 %17, 127
  %19 = icmp eq i32 %18, 0
  br i1 %19, label %20, label %23

20:                                               ; preds = %15
  %21 = lshr i32 %17, 8
  %22 = and i32 %21, 255
  store i32 %22, ptr %4, align 4
  call void @exit(i32 noundef %22) #23
  unreachable

23:                                               ; preds = %15, %daemonize_all_return.exit.thread, %2, %13, %11
  %.0 = phi i32 [ -1, %11 ], [ -1, %13 ], [ %5, %2 ], [ 0, %daemonize_all_return.exit.thread ], [ 0, %15 ]
  ret i32 %.0
}